target datalayout = "e-m:e-p270:32:32-p271:32:32-p272:64:64-i64:64-i128:128-f80:128-n8:16:32:64-S128"
target triple = "x86_64-pc-linux-gnu"

%struct.JsonLexContext = type { ptr, i64, i32, ptr, ptr, ptr, i8, i32, i32, i32, i32, ptr, ptr, ptr, i8, ptr, ptr }
%struct.ElementsState = type { ptr, ptr, ptr, ptr, ptr, ptr, i8, i8, ptr }

@.str.2 = private unnamed_addr constant [12 x i8] c"jsonfuncs.c\00", align 1
@.str.66 = private unnamed_addr constant [30 x i8] c"cannot call %s on a non-array\00", align 1
@__func__.elements_object_start = private unnamed_addr constant [22 x i8] c"elements_object_start\00", align 1

; Function Attrs: nounwind uwtable
define internal i32 @elements_object_start(ptr noundef %0) #0 {
  %2 = alloca ptr, align 8
  %3 = alloca ptr, align 8
  store ptr %0, ptr %2, align 8
  call void @llvm.lifetime.start.p0(i64 8, ptr %3) #10
  %4 = load ptr, ptr %2, align 8
  store ptr %4, ptr %3, align 8
  %5 = load ptr, ptr %3, align 8
  %6 = getelementptr inbounds nuw %struct.ElementsState, ptr %5, i32 0, i32 0
  %7 = load ptr, ptr %6, align 8
  %8 = getelementptr inbounds nuw %struct.JsonLexContext, ptr %7, i32 0, i32 8
  %9 = load i32, ptr %8, align 8
  %10 = icmp eq i32 %9, 0
  br i1 %10, label %11, label %26

11:                                               ; preds = %1
  br label %12

12:                                               ; preds = %11
  br i1 true, label %13, label %15

13:                                               ; preds = %12
  %14 = call zeroext i1 @errstart_cold(i32 noundef 21, ptr noundef null) #11
  br i1 %14, label %17, label %23

15:                                               ; preds = %12
  %16 = call zeroext i1 @errstart(i32 noundef 21, ptr noundef null)
  br i1 %16, label %17, label %23

17:                                               ; preds = %15, %13
  %18 = call i32 @errcode(i32 noundef 50856066)
  %19 = load ptr, ptr %3, align 8
  %20 = getelementptr inbounds nuw %struct.ElementsState, ptr %19, i32 0, i32 1
  %21 = load ptr, ptr %20, align 8
  %22 = call i32 (ptr, ...) @errmsg(ptr noundef @.str.66, ptr noundef %21)
  call void @errfinish(ptr noundef @.str.2, i32 noundef 2426, ptr noundef @__func__.elements_object_start)
  br label %23

23:                                               ; preds = %17, %15, %13
  unreachable

24:                                               ; No predecessors!
  br label %25

25:                                               ; preds = %24
  br label %26

26:                                               ; preds = %25, %1
  call void @llvm.lifetime.end.p0(i64 8, ptr %3) #10
  ret i32 0
}